target datalayout = "e-m:e-p270:32:32-p271:32:32-p272:64:64-i64:64-i128:128-f80:128-n8:16:32:64-S128"
target triple = "x86_64-pc-linux-gnu"

%struct.ssl_connection_st = type { %struct.ssl_st, ptr, i32, ptr, ptr, ptr, i32, ptr, i32, i32, i32, i32, %struct.OSSL_TIME, %struct.OSSL_TIME, %struct.ossl_statem_st, i32, ptr, ptr, i64, i64, i64, %struct.ossl_quic_tls_callbacks_st, ptr, ptr, %struct.anon, ptr, ptr, ptr, i32, ptr, %struct.ssl_dane_st, ptr, ptr, ptr, ptr, i32, [64 x i8], [64 x i8], [64 x i8], [64 x i8], [64 x i8], [64 x i8], [64 x i8], [64 x i8], [64 x i8], [64 x i8], [64 x i8], [64 x i8], ptr, [64 x i8], i64, i32, i64, [32 x i8], ptr, ptr, ptr, i64, ptr, [32 x i8], i64, i32, ptr, ptr, i32, i32, ptr, ptr, ptr, ptr, ptr, i64, ptr, ptr, i64, i32, i32, i32, i64, i32, i32, i64, i64, i64, %struct.anon.1, ptr, i32, ptr, ptr, ptr, i32, ptr, ptr, ptr, i32, i32, i32, i32, ptr, i64, i32, ptr, %struct.srp_ctx_st, ptr, %struct.record_layer_st, ptr, ptr, ptr, ptr, i64, i32, i32, i32, i64, i64, i64, ptr, ptr, ptr, ptr, ptr, i64, ptr, i64, ptr, i64 }
%struct.ssl_st = type { i32, ptr, ptr, ptr, %struct.CRYPTO_REF_COUNT, ptr, %struct.crypto_ex_data_st }
%struct.CRYPTO_REF_COUNT = type { i32 }
%struct.crypto_ex_data_st = type { ptr, ptr }
%struct.OSSL_TIME = type { i64 }
%struct.ossl_statem_st = type { i32, i32, i32, i32, i32, i32, i32, i32, i32, i32, i32, i32, i32, ptr, ptr, ptr, i8 }
%struct.ossl_quic_tls_callbacks_st = type { ptr, ptr, ptr, ptr, ptr, ptr }
%struct.anon = type { i64, [32 x i8], [32 x i8], ptr, ptr, i32, i32, i32, i32, [2 x i8], i32, i32, i32, i32, %struct.anon.0, [64 x i8], i64, [64 x i8], i64, i32, i32, ptr, i64, ptr, i64, i32, i8, i8, i16, ptr, i16 }
%struct.anon.0 = type { [128 x i8], i64, [128 x i8], i64, i64, i32, ptr, ptr, [4 x ptr], [4 x i16], i64, i32, ptr, i64, ptr, i64, ptr, ptr, ptr, i32, i64, ptr, i32, ptr, i64, ptr, i64, ptr, i64, ptr, ptr, ptr, ptr, i64, i64, ptr, ptr, i32, i32, i32, i32 }
%struct.ssl_dane_st = type { ptr, ptr, ptr, ptr, ptr, i32, i32, i32, i64 }
%struct.anon.1 = type { [29 x i8], ptr, ptr, ptr, i32, ptr, i16, i32, %struct.anon.2, i32, i32, i64, ptr, i64, ptr, i64, ptr, i64, ptr, i64, ptr, i64, ptr, ptr, ptr, ptr, ptr, ptr, ptr, i64, ptr, i64, i32, i32, i32, i32, ptr, i64, i32, i8, i32, [4 x i32], i32, i8, i8, i8, i8 }
%struct.anon.2 = type { ptr, ptr, ptr, i64 }
%struct.srp_ctx_st = type { ptr, ptr, ptr, ptr, ptr, ptr, ptr, ptr, ptr, ptr, ptr, ptr, ptr, ptr, i32, i64 }
%struct.record_layer_st = type { ptr, ptr, ptr, ptr, ptr, ptr, ptr, ptr, i64, i32, i64, [4 x i8], i64, i64, i8, ptr, i32, ptr, ptr, ptr, i64, i64, i64, i64, [32 x %struct.tls_record_st] }
%struct.tls_record_st = type { ptr, i32, i8, ptr, ptr, i64, i64, i16, [8 x i8] }

; Function Attrs: nounwind uwtable
define i32 @SSL_set_block_padding_ex(ptr noundef %0, i64 noundef %1, i64 noundef %2) #0 {
  %4 = alloca i32, align 4
  %5 = alloca ptr, align 8
  %6 = alloca i64, align 8
  %7 = alloca i64, align 8
  %8 = alloca ptr, align 8
  %9 = alloca i32, align 4
  store ptr %0, ptr %5, align 8, !tbaa !16
  store i64 %1, ptr %6, align 8, !tbaa !10
  store i64 %2, ptr %7, align 8, !tbaa !10
  call void @llvm.lifetime.start.p0(i64 8, ptr %8) #9
  %10 = load ptr, ptr %5, align 8, !tbaa !16
  %11 = icmp eq ptr %10, null
  br i1 %11, label %12, label %13

12:                                               ; preds = %3
  br label %34

13:                                               ; preds = %3
  %14 = load ptr, ptr %5, align 8, !tbaa !16
  %15 = getelementptr inbounds nuw %struct.ssl_st, ptr %14, i32 0, i32 0
  %16 = load i32, ptr %15, align 8, !tbaa !29
  %17 = icmp eq i32 %16, 0
  br i1 %17, label %18, label %20

18:                                               ; preds = %13
  %19 = load ptr, ptr %5, align 8, !tbaa !16
  br label %32

20:                                               ; preds = %13
  %21 = load ptr, ptr %5, align 8, !tbaa !16
  %22 = getelementptr inbounds nuw %struct.ssl_st, ptr %21, i32 0, i32 0
  %23 = load i32, ptr %22, align 8, !tbaa !29
  %24 = and i32 %23, 128
  %25 = icmp ne i32 %24, 0
  br i1 %25, label %26, label %29

26:                                               ; preds = %20
  %27 = load ptr, ptr %5, align 8, !tbaa !16
  %28 = call ptr @ossl_quic_obj_get0_handshake_layer(ptr noundef %27)
  br label %30

29:                                               ; preds = %20
  br label %30

30:                                               ; preds = %29, %26
  %31 = phi ptr [ %28, %26 ], [ null, %29 ]
  br label %32

32:                                               ; preds = %30, %18
  %33 = phi ptr [ %19, %18 ], [ %31, %30 ]
  br label %34

34:                                               ; preds = %32, %12
  %35 = phi ptr [ null, %12 ], [ %33, %32 ]
  store ptr %35, ptr %8, align 8, !tbaa !3
  %36 = load ptr, ptr %8, align 8, !tbaa !3
  %37 = icmp eq ptr %36, null
  br i1 %37, label %53, label %38

38:                                               ; preds = %34
  %39 = load ptr, ptr %5, align 8, !tbaa !16
  %40 = icmp ne ptr %39, null
  br i1 %40, label %41, label %54

41:                                               ; preds = %38
  %42 = load ptr, ptr %5, align 8, !tbaa !16
  %43 = getelementptr inbounds nuw %struct.ssl_st, ptr %42, i32 0, i32 0
  %44 = load i32, ptr %43, align 8, !tbaa !29
  %45 = and i32 %44, 128
  %46 = icmp ne i32 %45, 0
  br i1 %46, label %47, label %54

47:                                               ; preds = %41
  %48 = load i64, ptr %6, align 8, !tbaa !10
  %49 = icmp ugt i64 %48, 1
  br i1 %49, label %53, label %50

50:                                               ; preds = %47
  %51 = load i64, ptr %7, align 8, !tbaa !10
  %52 = icmp ugt i64 %51, 1
  br i1 %52, label %53, label %54

53:                                               ; preds = %50, %47, %34
  store i32 0, ptr %4, align 4
  store i32 1, ptr %9, align 4
  br label %89

54:                                               ; preds = %50, %41, %38
  %55 = load i64, ptr %6, align 8, !tbaa !10
  %56 = icmp eq i64 %55, 1
  br i1 %56, label %57, label %61

57:                                               ; preds = %54
  %58 = load ptr, ptr %8, align 8, !tbaa !3
  %59 = getelementptr inbounds nuw %struct.ssl_connection_st, ptr %58, i32 0, i32 104
  %60 = getelementptr inbounds nuw %struct.record_layer_st, ptr %59, i32 0, i32 20
  store i64 0, ptr %60, align 8, !tbaa !172
  br label %71

61:                                               ; preds = %54
  %62 = load i64, ptr %6, align 8, !tbaa !10
  %63 = icmp ule i64 %62, 16384
  br i1 %63, label %64, label %69

64:                                               ; preds = %61
  %65 = load i64, ptr %6, align 8, !tbaa !10
  %66 = load ptr, ptr %8, align 8, !tbaa !3
  %67 = getelementptr inbounds nuw %struct.ssl_connection_st, ptr %66, i32 0, i32 104
  %68 = getelementptr inbounds nuw %struct.record_layer_st, ptr %67, i32 0, i32 20
  store i64 %65, ptr %68, align 8, !tbaa !172
  br label %70

69:                                               ; preds = %61
  store i32 0, ptr %4, align 4
  store i32 1, ptr %9, align 4
  br label %89

70:                                               ; preds = %64
  br label %71

71:                                               ; preds = %70, %57
  %72 = load i64, ptr %7, align 8, !tbaa !10
  %73 = icmp eq i64 %72, 1
  br i1 %73, label %74, label %78

74:                                               ; preds = %71
  %75 = load ptr, ptr %8, align 8, !tbaa !3
  %76 = getelementptr inbounds nuw %struct.ssl_connection_st, ptr %75, i32 0, i32 104
  %77 = getelementptr inbounds nuw %struct.record_layer_st, ptr %76, i32 0, i32 21
  store i64 0, ptr %77, align 8, !tbaa !174
  br label %88

78:                                               ; preds = %71
  %79 = load i64, ptr %7, align 8, !tbaa !10
  %80 = icmp ule i64 %79, 16384
  br i1 %80, label %81, label %86

81:                                               ; preds = %78
  %82 = load i64, ptr %7, align 8, !tbaa !10
  %83 = load ptr, ptr %8, align 8, !tbaa !3
  %84 = getelementptr inbounds nuw %struct.ssl_connection_st, ptr %83, i32 0, i32 104
  %85 = getelementptr inbounds nuw %struct.record_layer_st, ptr %84, i32 0, i32 21
  store i64 %82, ptr %85, align 8, !tbaa !174
  br label %87

86:                                               ; preds = %78
  store i32 0, ptr %4, align 4
  store i32 1, ptr %9, align 4
  br label %89

87:                                               ; preds = %81
  br label %88

88:                                               ; preds = %87, %74
  store i32 1, ptr %4, align 4
  store i32 1, ptr %9, align 4
  br label %89

89:                                               ; preds = %88, %86, %69, %53
  call void @llvm.lifetime.end.p0(i64 8, ptr %8) #9
  %90 = load i32, ptr %4, align 4
  ret i32 %90
}

; Function Attrs: nounwind uwtable
define i32 @SSL_set_block_padding(ptr noundef %0, i64 noundef %1) #0 {
  %3 = alloca ptr, align 8
  %4 = alloca i64, align 8
  store ptr %0, ptr %3, align 8, !tbaa !16
  store i64 %1, ptr %4, align 8, !tbaa !10
  %5 = load ptr, ptr %3, align 8, !tbaa !16
  %6 = load i64, ptr %4, align 8, !tbaa !10
  %7 = load i64, ptr %4, align 8, !tbaa !10
  %8 = call i32 @SSL_set_block_padding_ex(ptr noundef %5, i64 noundef %6, i64 noundef %7)
  ret i32 %8
}