; Function Attrs: nounwind uwtable
define range(i32 0, 2) i32 @SSL_set_block_padding(ptr noundef %0, i64 noundef %1) local_unnamed_addr #0 {
  %3 = icmp eq ptr %0, null
  br i1 %3, label %SSL_set_block_padding_ex.exit, label %4

4:                                                ; preds = %2
  %5 = load i32, ptr %0, align 8, !tbaa !19
  %6 = icmp eq i32 %5, 0
  br i1 %6, label %.thread28.thread.i, label %7

7:                                                ; preds = %4
  %8 = and i32 %5, 128
  %.not.i = icmp eq i32 %8, 0
  br i1 %.not.i, label %SSL_set_block_padding_ex.exit, label %9

9:                                                ; preds = %7
  %10 = tail call ptr @ossl_quic_obj_get0_handshake_layer(ptr noundef nonnull %0) #20
  %11 = icmp eq ptr %10, null
  br i1 %11, label %SSL_set_block_padding_ex.exit, label %.thread28.i

.thread28.i:                                      ; preds = %9
  %.pre.i = load i32, ptr %0, align 8, !tbaa !19
  %12 = and i32 %.pre.i, 128
  %13 = icmp eq i32 %12, 0
  %or.cond.not.i = icmp ult i64 %1, 2
  %or.cond.i = or i1 %or.cond.not.i, %13
  br i1 %or.cond.i, label %.thread28.thread.i, label %SSL_set_block_padding_ex.exit

.thread28.thread.i:                               ; preds = %.thread28.i, %4
  %14 = phi ptr [ %10, %.thread28.i ], [ %0, %4 ]
  %15 = icmp eq i64 %1, 1
  br i1 %15, label %.thread.sink.split.i, label %16

16:                                               ; preds = %.thread28.thread.i
  %17 = icmp ult i64 %1, 16385
  br i1 %17, label %.thread.sink.split.i, label %SSL_set_block_padding_ex.exit

.thread.sink.split.i:                             ; preds = %16, %.thread28.thread.i
  %.sink = phi i64 [ 0, %.thread28.thread.i ], [ %1, %16 ]
  %18 = getelementptr inbounds nuw i8, ptr %14, i64 3320
  store i64 %.sink, ptr %18, align 8, !tbaa !158
  %19 = getelementptr inbounds nuw i8, ptr %14, i64 3328
  store i64 %.sink, ptr %19, align 8, !tbaa !160
  br label %SSL_set_block_padding_ex.exit

SSL_set_block_padding_ex.exit:                    ; preds = %2, %7, %9, %.thread28.i, %16, %.thread.sink.split.i
  %.0.i = phi i32 [ 0, %.thread28.i ], [ 0, %9 ], [ 0, %16 ], [ 0, %2 ], [ 0, %7 ], [ 1, %.thread.sink.split.i ]
  ret i32 %.0.i
}